; ModuleID = '52/1469.c'
source_filename = "52/1469.c"
target datalayout = "e-m:e-p270:32:32-p271:32:32-p272:64:64-i64:64-f80:128-n8:16:32:64-S128"
target triple = "x86_64-pc-linux-gnu"

@.str = private unnamed_addr constant [7 x i8] c"%d %d\0A\00", align 1
@.str.1 = private unnamed_addr constant [4 x i8] c"%d\0A\00", align 1
@.str.2 = private unnamed_addr constant [4 x i8] c"%d \00", align 1

; Function Attrs: noinline nounwind uwtable
define dso_local void @main() #0 {
  %1 = alloca i32, align 4
  %2 = alloca i32, align 4
  %3 = alloca i32, align 4
  %4 = alloca [100 x i32], align 16
  %5 = alloca i32, align 4
  %6 = call i32 (i8*, ...) @__isoc99_scanf(i8* getelementptr inbounds ([7 x i8], [7 x i8]* @.str, i64 0, i64 0), i32* %1, i32* %2)
  store i32 1, i32* %3, align 4
  br label %7

7:                                                ; preds = %16, %0
  %8 = load i32, i32* %3, align 4
  %9 = load i32, i32* %1, align 4
  %10 = icmp sle i32 %8, %9
  br i1 %10, label %11, label %19

11:                                               ; preds = %7
  %12 = load i32, i32* %3, align 4
  %13 = sext i32 %12 to i64
  %14 = getelementptr inbounds [100 x i32], [100 x i32]* %4, i64 0, i64 %13
  %15 = call i32 (i8*, ...) @__isoc99_scanf(i8* getelementptr inbounds ([4 x i8], [4 x i8]* @.str.1, i64 0, i64 0), i32* %14)
  br label %16

16:                                               ; preds = %11
  %17 = load i32, i32* %3, align 4
  %18 = add nsw i32 %17, 1
  store i32 %18, i32* %3, align 4
  br label %7

19:                                               ; preds = %7
  store i32 1, i32* %3, align 4
  br label %20

20:                                               ; preds = %55, %19
  %21 = load i32, i32* %3, align 4
  %22 = load i32, i32* %1, align 4
  %23 = icmp sle i32 %21, %22
  br i1 %23, label %24, label %58

24:                                               ; preds = %20
  %25 = load i32, i32* %3, align 4
  %26 = load i32, i32* %2, align 4
  %27 = icmp sle i32 %25, %26
  br i1 %27, label %28, label %37

28:                                               ; preds = %24
  %29 = load i32, i32* %1, align 4
  %30 = load i32, i32* %2, align 4
  %31 = sub nsw i32 %29, %30
  %32 = load i32, i32* %3, align 4
  %33 = add nsw i32 %31, %32
  %34 = sext i32 %33 to i64
  %35 = getelementptr inbounds [100 x i32], [100 x i32]* %4, i64 0, i64 %34
  %36 = load i32, i32* %35, align 4
  store i32 %36, i32* %5, align 4
  br label %44

37:                                               ; preds = %24
  %38 = load i32, i32* %3, align 4
  %39 = load i32, i32* %2, align 4
  %40 = sub nsw i32 %38, %39
  %41 = sext i32 %40 to i64
  %42 = getelementptr inbounds [100 x i32], [100 x i32]* %4, i64 0, i64 %41
  %43 = load i32, i32* %42, align 4
  store i32 %43, i32* %5, align 4
  br label %44

44:                                               ; preds = %37, %28
  %45 = load i32, i32* %3, align 4
  %46 = load i32, i32* %1, align 4
  %47 = icmp eq i32 %45, %46
  br i1 %47, label %48, label %51

48:                                               ; preds = %44
  %49 = load i32, i32* %5, align 4
  %50 = call i32 (i8*, ...) @printf(i8* getelementptr inbounds ([4 x i8], [4 x i8]* @.str.1, i64 0, i64 0), i32 %49)
  br label %54

51:                                               ; preds = %44
  %52 = load i32, i32* %5, align 4
  %53 = call i32 (i8*, ...) @printf(i8* getelementptr inbounds ([4 x i8], [4 x i8]* @.str.2, i64 0, i64 0), i32 %52)
  br label %54

54:                                               ; preds = %51, %48
  br label %55

55:                                               ; preds = %54
  %56 = load i32, i32* %3, align 4
  %57 = add nsw i32 %56, 1
  store i32 %57, i32* %3, align 4
  br label %20

58:                                               ; preds = %20
  ret void
}

declare dso_local i32 @__isoc99_scanf(i8*, ...) #1

declare dso_local i32 @printf(i8*, ...) #1


!llvm.module.flags = !{!0}
!llvm.ident = !{!1}

!0 = !{i32 1, !"wchar_size", i32 4}
!1 = !{!"clang version 10.0.0-4ubuntu1 "}
